target datalayout = "e-m:e-p270:32:32-p271:32:32-p272:64:64-i64:64-i128:128-f80:128-n8:16:32:64-S128"
target triple = "x86_64-pc-linux-gnu"

; Function Attrs: nounwind uwtable
define i32 @firstShiftWithOneBit(i64 noundef %0, i32 noundef %1) #0 {
  %3 = alloca i32, align 4
  %4 = alloca i64, align 8
  %5 = alloca i32, align 4
  %6 = alloca i32, align 4
  %7 = alloca i32, align 4
  store i64 %0, ptr %4, align 8, !tbaa !18
  store i32 %1, ptr %5, align 4, !tbaa !8
  call void @llvm.lifetime.start.p0(i64 4, ptr %6) #7
  store i32 0, ptr %6, align 4, !tbaa !8
  %8 = load i32, ptr %5, align 4, !tbaa !8
  %9 = icmp eq i32 %8, 16
  br i1 %9, label %10, label %11

10:                                               ; preds = %2
  store i32 0, ptr %3, align 4
  store i32 1, ptr %7, align 4
  br label %68

11:                                               ; preds = %2
  %12 = load i64, ptr %4, align 8, !tbaa !18
  %13 = icmp uge i64 %12, 4294967296
  br i1 %13, label %14, label %19

14:                                               ; preds = %11
  %15 = load i32, ptr %6, align 4, !tbaa !8
  %16 = add nsw i32 %15, 32
  store i32 %16, ptr %6, align 4, !tbaa !8
  %17 = load i64, ptr %4, align 8, !tbaa !18
  %18 = lshr i64 %17, 32
  store i64 %18, ptr %4, align 8, !tbaa !18
  br label %19

19:                                               ; preds = %14, %11
  %20 = load i32, ptr %5, align 4, !tbaa !8
  %21 = icmp eq i32 %20, 8
  br i1 %21, label %22, label %26

22:                                               ; preds = %19
  %23 = load i32, ptr %6, align 4, !tbaa !8
  %24 = sub nsw i32 64, %23
  %25 = sdiv i32 %24, 32
  store i32 %25, ptr %3, align 4
  store i32 1, ptr %7, align 4
  br label %68

26:                                               ; preds = %19
  %27 = load i64, ptr %4, align 8, !tbaa !18
  %28 = icmp uge i64 %27, 65536
  br i1 %28, label %29, label %34

29:                                               ; preds = %26
  %30 = load i32, ptr %6, align 4, !tbaa !8
  %31 = add nsw i32 %30, 16
  store i32 %31, ptr %6, align 4, !tbaa !8
  %32 = load i64, ptr %4, align 8, !tbaa !18
  %33 = lshr i64 %32, 16
  store i64 %33, ptr %4, align 8, !tbaa !18
  br label %34

34:                                               ; preds = %29, %26
  %35 = load i32, ptr %5, align 4, !tbaa !8
  %36 = icmp eq i32 %35, 4
  br i1 %36, label %37, label %41

37:                                               ; preds = %34
  %38 = load i32, ptr %6, align 4, !tbaa !8
  %39 = sub nsw i32 64, %38
  %40 = sdiv i32 %39, 16
  store i32 %40, ptr %3, align 4
  store i32 1, ptr %7, align 4
  br label %68

41:                                               ; preds = %34
  %42 = load i64, ptr %4, align 8, !tbaa !18
  %43 = icmp uge i64 %42, 256
  br i1 %43, label %44, label %49

44:                                               ; preds = %41
  %45 = load i32, ptr %6, align 4, !tbaa !8
  %46 = add nsw i32 %45, 8
  store i32 %46, ptr %6, align 4, !tbaa !8
  %47 = load i64, ptr %4, align 8, !tbaa !18
  %48 = lshr i64 %47, 8
  store i64 %48, ptr %4, align 8, !tbaa !18
  br label %49

49:                                               ; preds = %44, %41
  %50 = load i32, ptr %5, align 4, !tbaa !8
  %51 = icmp eq i32 %50, 2
  br i1 %51, label %52, label %56

52:                                               ; preds = %49
  %53 = load i32, ptr %6, align 4, !tbaa !8
  %54 = sub nsw i32 64, %53
  %55 = sdiv i32 %54, 8
  store i32 %55, ptr %3, align 4
  store i32 1, ptr %7, align 4
  br label %68

56:                                               ; preds = %49
  %57 = load i64, ptr %4, align 8, !tbaa !18
  %58 = icmp uge i64 %57, 16
  br i1 %58, label %59, label %64

59:                                               ; preds = %56
  %60 = load i32, ptr %6, align 4, !tbaa !8
  %61 = add nsw i32 %60, 4
  store i32 %61, ptr %6, align 4, !tbaa !8
  %62 = load i64, ptr %4, align 8, !tbaa !18
  %63 = lshr i64 %62, 4
  store i64 %63, ptr %4, align 8, !tbaa !18
  br label %64

64:                                               ; preds = %59, %56
  %65 = load i32, ptr %6, align 4, !tbaa !8
  %66 = sub nsw i32 64, %65
  %67 = sdiv i32 %66, 4
  store i32 %67, ptr %3, align 4
  store i32 1, ptr %7, align 4
  br label %68

68:                                               ; preds = %64, %52, %37, %22, %10
  call void @llvm.lifetime.end.p0(i64 4, ptr %6) #7
  %69 = load i32, ptr %3, align 4
  ret i32 %69
}