; Function Attrs: mustprogress nofree norecurse nosync nounwind willreturn memory(none) uwtable
define range(i32 0, 17) i32 @firstShiftWithOneBit(i64 noundef %0, i32 noundef %1) local_unnamed_addr #4 {
  %3 = icmp eq i32 %1, 16
  br i1 %3, label %28, label %4

4:                                                ; preds = %2
  %5 = icmp ugt i64 %0, 4294967295
  %spec.select28 = select i1 %5, i32 32, i32 0
  %6 = icmp eq i32 %1, 8
  br i1 %6, label %7, label %10

7:                                                ; preds = %4
  %8 = sub nuw nsw i32 64, %spec.select28
  %9 = lshr exact i32 %8, 5
  br label %28

10:                                               ; preds = %4
  %11 = lshr i64 %0, 32
  %spec.select = select i1 %5, i64 %11, i64 %0
  %12 = icmp samesign ugt i64 %spec.select, 65535
  %13 = or disjoint i32 %spec.select28, 16
  %.1 = select i1 %12, i32 %13, i32 %spec.select28
  %14 = icmp eq i32 %1, 4
  br i1 %14, label %15, label %16

15:                                               ; preds = %10
  %.lhs.trunc = sub nuw nsw i32 64, %.1
  %.zext = lshr exact i32 %.lhs.trunc, 4
  br label %28

16:                                               ; preds = %10
  %17 = lshr i64 %spec.select, 16
  %.123 = select i1 %12, i64 %17, i64 %spec.select
  %18 = icmp samesign ugt i64 %.123, 255
  %19 = or disjoint i32 %.1, 8
  %.2 = select i1 %18, i32 %19, i32 %.1
  %20 = icmp eq i32 %1, 2
  br i1 %20, label %21, label %23

21:                                               ; preds = %16
  %.lhs.trunc30 = sub nuw nsw i32 64, %.2
  %22 = lshr exact i32 %.lhs.trunc30, 3
  br label %28

23:                                               ; preds = %16
  %24 = lshr i64 %.123, 8
  %.224 = select i1 %18, i64 %24, i64 %.123
  %25 = icmp samesign ugt i64 %.224, 15
  %26 = or disjoint i32 %.2, 4
  %spec.select29 = select i1 %25, i32 %26, i32 %.2
  %.lhs.trunc32 = sub nuw nsw i32 64, %spec.select29
  %27 = lshr i32 %.lhs.trunc32, 2
  br label %28

28:                                               ; preds = %2, %23, %21, %15, %7
  %.021 = phi i32 [ %9, %7 ], [ %.zext, %15 ], [ %22, %21 ], [ %27, %23 ], [ 0, %2 ]
  ret i32 %.021
}